; Function Attrs: mustprogress uwtable
define dso_local noundef zeroext i1 @_ZNK4Luau20MissingUnionPropertyeqERKS0_(ptr noundef nonnull readonly align 8 captures(none) dereferenceable(64) %0, ptr noundef nonnull readonly align 8 captures(none) dereferenceable(64) %1) local_unnamed_addr #5 align 2 {
  %3 = getelementptr inbounds nuw i8, ptr %0, i64 8
  %4 = getelementptr inbounds nuw i8, ptr %0, i64 16
  %5 = load ptr, ptr %4, align 8, !tbaa !177
  %6 = load ptr, ptr %3, align 8, !tbaa !180
  %7 = ptrtoint ptr %5 to i64
  %8 = ptrtoint ptr %6 to i64
  %9 = sub i64 %7, %8
  %10 = getelementptr inbounds nuw i8, ptr %1, i64 8
  %11 = getelementptr inbounds nuw i8, ptr %1, i64 16
  %12 = load ptr, ptr %11, align 8, !tbaa !177
  %13 = load ptr, ptr %10, align 8, !tbaa !180
  %14 = ptrtoint ptr %12 to i64
  %15 = ptrtoint ptr %13 to i64
  %16 = sub i64 %14, %15
  %.not = icmp eq i64 %9, %16
  br i1 %.not, label %.preheader, label %_ZSteqIcEN9__gnu_cxx11__enable_ifIXsr9__is_charIT_EE7__valueEbE6__typeERKNSt7__cxx1112basic_stringIS2_St11char_traitsIS2_ESaIS2_EEESC_.exit

.preheader:                                       ; preds = %2
  %.not16 = icmp eq ptr %5, %6
  br i1 %.not16, label %._crit_edge, label %.lr.ph

17:                                               ; preds = %.lr.ph
  %18 = add nuw i64 %.01015, 1
  %19 = load ptr, ptr %4, align 8, !tbaa !177
  %20 = load ptr, ptr %3, align 8, !tbaa !180
  %21 = ptrtoint ptr %19 to i64
  %22 = ptrtoint ptr %20 to i64
  %23 = sub i64 %21, %22
  %24 = ashr exact i64 %23, 3
  %25 = icmp ult i64 %18, %24
  br i1 %25, label %.lr.ph, label %._crit_edge, !llvm.loop !181

.lr.ph:                                           ; preds = %.preheader, %17
  %26 = phi ptr [ %20, %17 ], [ %6, %.preheader ]
  %.01015 = phi i64 [ %18, %17 ], [ 0, %.preheader ]
  %27 = getelementptr inbounds nuw ptr, ptr %26, i64 %.01015
  %28 = load ptr, ptr %27, align 8, !tbaa !182
  %29 = load ptr, ptr %10, align 8, !tbaa !180
  %30 = getelementptr inbounds nuw ptr, ptr %29, i64 %.01015
  %31 = load ptr, ptr %30, align 8, !tbaa !182
  %32 = tail call noundef zeroext i1 @_ZNK4Luau4TypeneERKS0_(ptr noundef nonnull align 8 dereferenceable(400) %28, ptr noundef nonnull align 8 dereferenceable(400) %31)
  br i1 %32, label %_ZSteqIcEN9__gnu_cxx11__enable_ifIXsr9__is_charIT_EE7__valueEbE6__typeERKNSt7__cxx1112basic_stringIS2_St11char_traitsIS2_ESaIS2_EEESC_.exit, label %17

._crit_edge:                                      ; preds = %17, %.preheader
  %33 = load ptr, ptr %0, align 8, !tbaa !183
  %34 = load ptr, ptr %1, align 8, !tbaa !183
  %35 = tail call noundef zeroext i1 @_ZNK4Luau4TypeeqERKS0_(ptr noundef nonnull align 8 dereferenceable(400) %33, ptr noundef nonnull align 8 dereferenceable(400) %34)
  br i1 %35, label %36, label %_ZSteqIcEN9__gnu_cxx11__enable_ifIXsr9__is_charIT_EE7__valueEbE6__typeERKNSt7__cxx1112basic_stringIS2_St11char_traitsIS2_ESaIS2_EEESC_.exit

36:                                               ; preds = %._crit_edge
  %37 = getelementptr inbounds nuw i8, ptr %0, i64 32
  %38 = getelementptr inbounds nuw i8, ptr %1, i64 32
  %39 = getelementptr inbounds nuw i8, ptr %0, i64 40
  %40 = load i64, ptr %39, align 8, !tbaa !23
  %41 = getelementptr inbounds nuw i8, ptr %1, i64 40
  %42 = load i64, ptr %41, align 8, !tbaa !23
  %43 = icmp eq i64 %40, %42
  br i1 %43, label %44, label %_ZSteqIcEN9__gnu_cxx11__enable_ifIXsr9__is_charIT_EE7__valueEbE6__typeERKNSt7__cxx1112basic_stringIS2_St11char_traitsIS2_ESaIS2_EEESC_.exit

44:                                               ; preds = %36
  %45 = icmp eq i64 %40, 0
  br i1 %45, label %_ZSteqIcEN9__gnu_cxx11__enable_ifIXsr9__is_charIT_EE7__valueEbE6__typeERKNSt7__cxx1112basic_stringIS2_St11char_traitsIS2_ESaIS2_EEESC_.exit, label %46

46:                                               ; preds = %44
  %47 = load ptr, ptr %38, align 8, !tbaa !19
  %48 = load ptr, ptr %37, align 8, !tbaa !19
  %bcmp.i = tail call i32 @bcmp(ptr %48, ptr %47, i64 %40)
  %49 = icmp eq i32 %bcmp.i, 0
  br label %_ZSteqIcEN9__gnu_cxx11__enable_ifIXsr9__is_charIT_EE7__valueEbE6__typeERKNSt7__cxx1112basic_stringIS2_St11char_traitsIS2_ESaIS2_EEESC_.exit

_ZSteqIcEN9__gnu_cxx11__enable_ifIXsr9__is_charIT_EE7__valueEbE6__typeERKNSt7__cxx1112basic_stringIS2_St11char_traitsIS2_ESaIS2_EEESC_.exit: ; preds = %.lr.ph, %46, %44, %36, %._crit_edge, %2
  %.011 = phi i1 [ false, %2 ], [ false, %._crit_edge ], [ false, %36 ], [ %49, %46 ], [ true, %44 ], [ false, %.lr.ph ]
  ret i1 %.011
}